; Function Attrs: nounwind uwtable
define internal range(i32 -11, 1) i32 @FN_Sorted_Last_Field(ptr noundef %0) #0 {
  %2 = getelementptr inbounds nuw i8, ptr %0, i64 64
  %3 = load ptr, ptr %2, align 8, !tbaa !62
  %4 = getelementptr inbounds nuw i8, ptr %0, i64 80
  %5 = load ptr, ptr %4, align 8, !tbaa !78
  %6 = getelementptr inbounds nuw i8, ptr %0, i64 28
  %7 = load i16, ptr %6, align 4, !tbaa !47
  %8 = sext i16 %7 to i64
  %9 = getelementptr inbounds %struct._PAGE, ptr %5, i64 %8, i32 2
  %10 = load i16, ptr %9, align 2, !tbaa !86
  %11 = sext i16 %10 to i64
  %12 = getelementptr inbounds ptr, ptr %3, i64 %11
  %13 = load ptr, ptr %12, align 8, !tbaa !81
  br label %14

14:                                               ; preds = %14, %1
  %.0.i = phi ptr [ %13, %1 ], [ %16, %14 ]
  %15 = getelementptr inbounds nuw i8, ptr %.0.i, i64 64
  %16 = load ptr, ptr %15, align 8, !tbaa !111
  %17 = getelementptr inbounds nuw i8, ptr %16, i64 48
  %18 = load i32, ptr %17, align 8, !tbaa !19
  %19 = and i32 %18, 3
  %20 = icmp eq i32 %19, 3
  %.not.i = icmp eq ptr %16, %13
  %or.cond.i = or i1 %.not.i, %20
  br i1 %or.cond.i, label %Sorted_Previous_Field.exit, label %14, !llvm.loop !112

Sorted_Previous_Field.exit:                       ; preds = %14
  %21 = tail call i32 @_nc_Set_Current_Field(ptr noundef %0, ptr noundef nonnull %16)
  ret i32 %21
}